target datalayout = "e-m:e-p270:32:32-p271:32:32-p272:64:64-i64:64-i128:128-f80:128-n8:16:32:64-S128"
target triple = "x86_64-pc-linux-gnu"

%struct.TupleTableSlotOps = type { i64, ptr, ptr, ptr, ptr, ptr, ptr, ptr, ptr, ptr, ptr, ptr, ptr }
%struct.MergeAppendState = type { %struct.PlanState, ptr, i32, i32, ptr, ptr, ptr, i8, ptr, ptr }
%struct.PlanState = type { i32, ptr, ptr, ptr, ptr, ptr, ptr, ptr, ptr, ptr, ptr, ptr, ptr, ptr, ptr, ptr, ptr, ptr, i8, ptr, ptr, ptr, ptr, ptr, i8, i8, i8, i8, i8, i8, i8, i8 }
%struct.MergeAppend = type { %struct.Plan, ptr, ptr, i32, ptr, ptr, ptr, ptr, i32 }
%struct.Plan = type { i32, i32, double, double, double, i32, i8, i8, i8, i32, ptr, ptr, ptr, ptr, ptr, ptr, ptr }
%struct.PartitionPruneState = type { ptr, ptr, ptr, ptr, i8, i8, i32, [0 x ptr] }
%struct.SortSupportData = type { ptr, i32, i8, i8, i16, ptr, ptr, i8, ptr, ptr, ptr }
%struct.Node = type { i32 }
%struct.List = type { i32, i32, i32, ptr, [0 x %union.ListCell] }
%union.ListCell = type { ptr }

@TTSOpsVirtual = external constant %struct.TupleTableSlotOps, align 8
@CurrentMemoryContext = external global ptr, align 8

; Function Attrs: inlinehint nounwind uwtable
define internal ptr @list_nth_cell(ptr noundef %0, i32 noundef %1) #2 {
  %3 = alloca ptr, align 8
  %4 = alloca i32, align 4
  store ptr %0, ptr %3, align 8
  store i32 %1, ptr %4, align 4
  %5 = load ptr, ptr %3, align 8
  %6 = getelementptr inbounds nuw %struct.List, ptr %5, i32 0, i32 3
  %7 = load ptr, ptr %6, align 8
  %8 = load i32, ptr %4, align 4
  %9 = sext i32 %8 to i64
  %10 = getelementptr inbounds %union.ListCell, ptr %7, i64 %9
  ret ptr %10
}

; Function Attrs: inlinehint nounwind uwtable
define internal ptr @list_nth(ptr noundef %0, i32 noundef %1) #2 {
  %3 = alloca ptr, align 8
  %4 = alloca i32, align 4
  store ptr %0, ptr %3, align 8
  store i32 %1, ptr %4, align 4
  %5 = load ptr, ptr %3, align 8
  %6 = load i32, ptr %4, align 4
  %7 = call ptr @list_nth_cell(ptr noundef %5, i32 noundef %6)
  %8 = load ptr, ptr %7, align 8
  ret ptr %8
}

; Function Attrs: inlinehint nounwind uwtable
define internal i32 @list_length(ptr noundef %0) #2 {
  %2 = alloca ptr, align 8
  store ptr %0, ptr %2, align 8
  %3 = load ptr, ptr %2, align 8
  %4 = icmp ne ptr %3, null
  br i1 %4, label %5, label %9

5:                                                ; preds = %1
  %6 = load ptr, ptr %2, align 8
  %7 = getelementptr inbounds nuw %struct.List, ptr %6, i32 0, i32 1
  %8 = load i32, ptr %7, align 4
  br label %10

9:                                                ; preds = %1
  br label %10

10:                                               ; preds = %9, %5
  %11 = phi i32 [ %8, %5 ], [ 0, %9 ]
  ret i32 %11
}

; Function Attrs: inlinehint nounwind uwtable
define internal ptr @newNode(i64 noundef %0, i32 noundef %1) #2 {
  %3 = alloca i64, align 8
  %4 = alloca i32, align 4
  %5 = alloca ptr, align 8
  store i64 %0, ptr %3, align 8
  store i32 %1, ptr %4, align 4
  call void @llvm.lifetime.start.p0(i64 8, ptr %5) #5
  %6 = load i64, ptr %3, align 8
  %7 = call ptr @palloc0(i64 noundef %6)
  store ptr %7, ptr %5, align 8
  %8 = load i32, ptr %4, align 4
  %9 = load ptr, ptr %5, align 8
  %10 = getelementptr inbounds nuw %struct.Node, ptr %9, i32 0, i32 0
  store i32 %8, ptr %10, align 4
  %11 = load ptr, ptr %5, align 8
  call void @llvm.lifetime.end.p0(i64 8, ptr %5) #5
  ret ptr %11
}

; Function Attrs: nounwind uwtable
define dso_local ptr @ExecInitMergeAppend(ptr noundef %0, ptr noundef %1, i32 noundef %2) #0 {
  %4 = alloca ptr, align 8
  %5 = alloca ptr, align 8
  %6 = alloca i32, align 4
  %7 = alloca ptr, align 8
  %8 = alloca ptr, align 8
  %9 = alloca ptr, align 8
  %10 = alloca ptr, align 8
  %11 = alloca i32, align 4
  %12 = alloca i32, align 4
  %13 = alloca i32, align 4
  %14 = alloca ptr, align 8
  %15 = alloca ptr, align 8
  %16 = alloca ptr, align 8
  store ptr %0, ptr %4, align 8
  store ptr %1, ptr %5, align 8
  store i32 %2, ptr %6, align 4
  call void @llvm.lifetime.start.p0(i64 8, ptr %7) #5
  %17 = call ptr @newNode(i64 noundef 264, i32 noundef 397)
  store ptr %17, ptr %7, align 8
  call void @llvm.lifetime.start.p0(i64 8, ptr %8) #5
  call void @llvm.lifetime.start.p0(i64 8, ptr %9) #5
  call void @llvm.lifetime.start.p0(i64 8, ptr %10) #5
  call void @llvm.lifetime.start.p0(i64 4, ptr %11) #5
  call void @llvm.lifetime.start.p0(i64 4, ptr %12) #5
  call void @llvm.lifetime.start.p0(i64 4, ptr %13) #5
  %18 = load ptr, ptr %4, align 8
  %19 = load ptr, ptr %7, align 8
  %20 = getelementptr inbounds nuw %struct.MergeAppendState, ptr %19, i32 0, i32 0
  %21 = getelementptr inbounds nuw %struct.PlanState, ptr %20, i32 0, i32 1
  store ptr %18, ptr %21, align 8
  %22 = load ptr, ptr %5, align 8
  %23 = load ptr, ptr %7, align 8
  %24 = getelementptr inbounds nuw %struct.MergeAppendState, ptr %23, i32 0, i32 0
  %25 = getelementptr inbounds nuw %struct.PlanState, ptr %24, i32 0, i32 2
  store ptr %22, ptr %25, align 8
  %26 = load ptr, ptr %7, align 8
  %27 = getelementptr inbounds nuw %struct.MergeAppendState, ptr %26, i32 0, i32 0
  %28 = getelementptr inbounds nuw %struct.PlanState, ptr %27, i32 0, i32 3
  store ptr @ExecMergeAppend, ptr %28, align 8
  %29 = load ptr, ptr %4, align 8
  %30 = getelementptr inbounds nuw %struct.MergeAppend, ptr %29, i32 0, i32 8
  %31 = load i32, ptr %30, align 8
  %32 = icmp sge i32 %31, 0
  br i1 %32, label %33, label %66

33:                                               ; preds = %3
  call void @llvm.lifetime.start.p0(i64 8, ptr %14) #5
  %34 = load ptr, ptr %7, align 8
  %35 = getelementptr inbounds nuw %struct.MergeAppendState, ptr %34, i32 0, i32 0
  %36 = load ptr, ptr %4, align 8
  %37 = getelementptr inbounds nuw %struct.MergeAppend, ptr %36, i32 0, i32 2
  %38 = load ptr, ptr %37, align 8
  %39 = call i32 @list_length(ptr noundef %38)
  %40 = load ptr, ptr %4, align 8
  %41 = getelementptr inbounds nuw %struct.MergeAppend, ptr %40, i32 0, i32 8
  %42 = load i32, ptr %41, align 8
  %43 = load ptr, ptr %4, align 8
  %44 = getelementptr inbounds nuw %struct.MergeAppend, ptr %43, i32 0, i32 1
  %45 = load ptr, ptr %44, align 8
  %46 = call ptr @ExecInitPartitionExecPruning(ptr noundef %35, i32 noundef %39, i32 noundef %42, ptr noundef %45, ptr noundef %10)
  store ptr %46, ptr %14, align 8
  %47 = load ptr, ptr %14, align 8
  %48 = load ptr, ptr %7, align 8
  %49 = getelementptr inbounds nuw %struct.MergeAppendState, ptr %48, i32 0, i32 8
  store ptr %47, ptr %49, align 8
  %50 = load ptr, ptr %10, align 8
  %51 = call i32 @bms_num_members(ptr noundef %50)
  store i32 %51, ptr %11, align 4
  %52 = load ptr, ptr %14, align 8
  %53 = getelementptr inbounds nuw %struct.PartitionPruneState, ptr %52, i32 0, i32 5
  %54 = load i8, ptr %53, align 1, !range !4, !noundef !5
  %55 = trunc i8 %54 to i1
  br i1 %55, label %65, label %56

56:                                               ; preds = %33
  %57 = load i32, ptr %11, align 4
  %58 = icmp sgt i32 %57, 0
  br i1 %58, label %59, label %65

59:                                               ; preds = %56
  %60 = load i32, ptr %11, align 4
  %61 = sub i32 %60, 1
  %62 = call ptr @bms_add_range(ptr noundef null, i32 noundef 0, i32 noundef %61)
  %63 = load ptr, ptr %7, align 8
  %64 = getelementptr inbounds nuw %struct.MergeAppendState, ptr %63, i32 0, i32 9
  store ptr %62, ptr %64, align 8
  br label %65

65:                                               ; preds = %59, %56, %33
  call void @llvm.lifetime.end.p0(i64 8, ptr %14) #5
  br label %78

66:                                               ; preds = %3
  %67 = load ptr, ptr %4, align 8
  %68 = getelementptr inbounds nuw %struct.MergeAppend, ptr %67, i32 0, i32 2
  %69 = load ptr, ptr %68, align 8
  %70 = call i32 @list_length(ptr noundef %69)
  store i32 %70, ptr %11, align 4
  %71 = load i32, ptr %11, align 4
  %72 = sub i32 %71, 1
  %73 = call ptr @bms_add_range(ptr noundef null, i32 noundef 0, i32 noundef %72)
  store ptr %73, ptr %10, align 8
  %74 = load ptr, ptr %7, align 8
  %75 = getelementptr inbounds nuw %struct.MergeAppendState, ptr %74, i32 0, i32 9
  store ptr %73, ptr %75, align 8
  %76 = load ptr, ptr %7, align 8
  %77 = getelementptr inbounds nuw %struct.MergeAppendState, ptr %76, i32 0, i32 8
  store ptr null, ptr %77, align 8
  br label %78

78:                                               ; preds = %66, %65
  %79 = load i32, ptr %11, align 4
  %80 = sext i32 %79 to i64
  %81 = mul i64 %80, 8
  %82 = call ptr @palloc(i64 noundef %81)
  store ptr %82, ptr %8, align 8
  %83 = load ptr, ptr %8, align 8
  %84 = load ptr, ptr %7, align 8
  %85 = getelementptr inbounds nuw %struct.MergeAppendState, ptr %84, i32 0, i32 1
  store ptr %83, ptr %85, align 8
  %86 = load i32, ptr %11, align 4
  %87 = load ptr, ptr %7, align 8
  %88 = getelementptr inbounds nuw %struct.MergeAppendState, ptr %87, i32 0, i32 2
  store i32 %86, ptr %88, align 8
  %89 = load i32, ptr %11, align 4
  %90 = sext i32 %89 to i64
  %91 = mul i64 8, %90
  %92 = call ptr @palloc0(i64 noundef %91)
  %93 = load ptr, ptr %7, align 8
  %94 = getelementptr inbounds nuw %struct.MergeAppendState, ptr %93, i32 0, i32 5
  store ptr %92, ptr %94, align 8
  %95 = load i32, ptr %11, align 4
  %96 = load ptr, ptr %7, align 8
  %97 = call ptr @binaryheap_allocate(i32 noundef %95, ptr noundef @heap_compare_slots, ptr noundef %96)
  %98 = load ptr, ptr %7, align 8
  %99 = getelementptr inbounds nuw %struct.MergeAppendState, ptr %98, i32 0, i32 6
  store ptr %97, ptr %99, align 8
  store i32 0, ptr %13, align 4
  store i32 -1, ptr %12, align 4
  br label %100

100:                                              ; preds = %105, %78
  %101 = load ptr, ptr %10, align 8
  %102 = load i32, ptr %12, align 4
  %103 = call i32 @bms_next_member(ptr noundef %101, i32 noundef %102)
  store i32 %103, ptr %12, align 4
  %104 = icmp sge i32 %103, 0
  br i1 %104, label %105, label %120

105:                                              ; preds = %100
  call void @llvm.lifetime.start.p0(i64 8, ptr %15) #5
  %106 = load ptr, ptr %4, align 8
  %107 = getelementptr inbounds nuw %struct.MergeAppend, ptr %106, i32 0, i32 2
  %108 = load ptr, ptr %107, align 8
  %109 = load i32, ptr %12, align 4
  %110 = call ptr @list_nth(ptr noundef %108, i32 noundef %109)
  store ptr %110, ptr %15, align 8
  %111 = load ptr, ptr %15, align 8
  %112 = load ptr, ptr %5, align 8
  %113 = load i32, ptr %6, align 4
  %114 = call ptr @ExecInitNode(ptr noundef %111, ptr noundef %112, i32 noundef %113)
  %115 = load ptr, ptr %8, align 8
  %116 = load i32, ptr %13, align 4
  %117 = add i32 %116, 1
  store i32 %117, ptr %13, align 4
  %118 = sext i32 %116 to i64
  %119 = getelementptr inbounds ptr, ptr %115, i64 %118
  store ptr %114, ptr %119, align 8
  call void @llvm.lifetime.end.p0(i64 8, ptr %15) #5
  br label %100, !llvm.loop !6

120:                                              ; preds = %100
  %121 = load ptr, ptr %8, align 8
  %122 = load i32, ptr %13, align 4
  %123 = call ptr @ExecGetCommonSlotOps(ptr noundef %121, i32 noundef %122)
  store ptr %123, ptr %9, align 8
  %124 = load ptr, ptr %9, align 8
  %125 = icmp ne ptr %124, null
  br i1 %125, label %126, label %130

126:                                              ; preds = %120
  %127 = load ptr, ptr %7, align 8
  %128 = getelementptr inbounds nuw %struct.MergeAppendState, ptr %127, i32 0, i32 0
  %129 = load ptr, ptr %9, align 8
  call void @ExecInitResultTupleSlotTL(ptr noundef %128, ptr noundef %129)
  br label %139

130:                                              ; preds = %120
  %131 = load ptr, ptr %7, align 8
  %132 = getelementptr inbounds nuw %struct.MergeAppendState, ptr %131, i32 0, i32 0
  call void @ExecInitResultTupleSlotTL(ptr noundef %132, ptr noundef @TTSOpsVirtual)
  %133 = load ptr, ptr %7, align 8
  %134 = getelementptr inbounds nuw %struct.MergeAppendState, ptr %133, i32 0, i32 0
  %135 = getelementptr inbounds nuw %struct.PlanState, ptr %134, i32 0, i32 31
  store i8 1, ptr %135, align 1
  %136 = load ptr, ptr %7, align 8
  %137 = getelementptr inbounds nuw %struct.MergeAppendState, ptr %136, i32 0, i32 0
  %138 = getelementptr inbounds nuw %struct.PlanState, ptr %137, i32 0, i32 27
  store i8 0, ptr %138, align 1
  br label %139

139:                                              ; preds = %130, %126
  %140 = load ptr, ptr %7, align 8
  %141 = getelementptr inbounds nuw %struct.MergeAppendState, ptr %140, i32 0, i32 0
  %142 = getelementptr inbounds nuw %struct.PlanState, ptr %141, i32 0, i32 17
  store ptr null, ptr %142, align 8
  %143 = load ptr, ptr %4, align 8
  %144 = getelementptr inbounds nuw %struct.MergeAppend, ptr %143, i32 0, i32 3
  %145 = load i32, ptr %144, align 8
  %146 = load ptr, ptr %7, align 8
  %147 = getelementptr inbounds nuw %struct.MergeAppendState, ptr %146, i32 0, i32 3
  store i32 %145, ptr %147, align 4
  %148 = load ptr, ptr %4, align 8
  %149 = getelementptr inbounds nuw %struct.MergeAppend, ptr %148, i32 0, i32 3
  %150 = load i32, ptr %149, align 8
  %151 = sext i32 %150 to i64
  %152 = mul i64 64, %151
  %153 = call ptr @palloc0(i64 noundef %152)
  %154 = load ptr, ptr %7, align 8
  %155 = getelementptr inbounds nuw %struct.MergeAppendState, ptr %154, i32 0, i32 4
  store ptr %153, ptr %155, align 8
  store i32 0, ptr %12, align 4
  br label %156

156:                                              ; preds = %211, %139
  %157 = load i32, ptr %12, align 4
  %158 = load ptr, ptr %4, align 8
  %159 = getelementptr inbounds nuw %struct.MergeAppend, ptr %158, i32 0, i32 3
  %160 = load i32, ptr %159, align 8
  %161 = icmp slt i32 %157, %160
  br i1 %161, label %162, label %214

162:                                              ; preds = %156
  call void @llvm.lifetime.start.p0(i64 8, ptr %16) #5
  %163 = load ptr, ptr %7, align 8
  %164 = getelementptr inbounds nuw %struct.MergeAppendState, ptr %163, i32 0, i32 4
  %165 = load ptr, ptr %164, align 8
  %166 = load i32, ptr %12, align 4
  %167 = sext i32 %166 to i64
  %168 = getelementptr inbounds %struct.SortSupportData, ptr %165, i64 %167
  store ptr %168, ptr %16, align 8
  %169 = load ptr, ptr @CurrentMemoryContext, align 8
  %170 = load ptr, ptr %16, align 8
  %171 = getelementptr inbounds nuw %struct.SortSupportData, ptr %170, i32 0, i32 0
  store ptr %169, ptr %171, align 8
  %172 = load ptr, ptr %4, align 8
  %173 = getelementptr inbounds nuw %struct.MergeAppend, ptr %172, i32 0, i32 6
  %174 = load ptr, ptr %173, align 8
  %175 = load i32, ptr %12, align 4
  %176 = sext i32 %175 to i64
  %177 = getelementptr inbounds i32, ptr %174, i64 %176
  %178 = load i32, ptr %177, align 4
  %179 = load ptr, ptr %16, align 8
  %180 = getelementptr inbounds nuw %struct.SortSupportData, ptr %179, i32 0, i32 1
  store i32 %178, ptr %180, align 8
  %181 = load ptr, ptr %4, align 8
  %182 = getelementptr inbounds nuw %struct.MergeAppend, ptr %181, i32 0, i32 7
  %183 = load ptr, ptr %182, align 8
  %184 = load i32, ptr %12, align 4
  %185 = sext i32 %184 to i64
  %186 = getelementptr inbounds i8, ptr %183, i64 %185
  %187 = load i8, ptr %186, align 1, !range !4, !noundef !5
  %188 = trunc i8 %187 to i1
  %189 = load ptr, ptr %16, align 8
  %190 = getelementptr inbounds nuw %struct.SortSupportData, ptr %189, i32 0, i32 3
  %191 = zext i1 %188 to i8
  store i8 %191, ptr %190, align 1
  %192 = load ptr, ptr %4, align 8
  %193 = getelementptr inbounds nuw %struct.MergeAppend, ptr %192, i32 0, i32 4
  %194 = load ptr, ptr %193, align 8
  %195 = load i32, ptr %12, align 4
  %196 = sext i32 %195 to i64
  %197 = getelementptr inbounds i16, ptr %194, i64 %196
  %198 = load i16, ptr %197, align 2
  %199 = load ptr, ptr %16, align 8
  %200 = getelementptr inbounds nuw %struct.SortSupportData, ptr %199, i32 0, i32 4
  store i16 %198, ptr %200, align 2
  %201 = load ptr, ptr %16, align 8
  %202 = getelementptr inbounds nuw %struct.SortSupportData, ptr %201, i32 0, i32 7
  store i8 0, ptr %202, align 8
  %203 = load ptr, ptr %4, align 8
  %204 = getelementptr inbounds nuw %struct.MergeAppend, ptr %203, i32 0, i32 5
  %205 = load ptr, ptr %204, align 8
  %206 = load i32, ptr %12, align 4
  %207 = sext i32 %206 to i64
  %208 = getelementptr inbounds i32, ptr %205, i64 %207
  %209 = load i32, ptr %208, align 4
  %210 = load ptr, ptr %16, align 8
  call void @PrepareSortSupportFromOrderingOp(i32 noundef %209, ptr noundef %210)
  call void @llvm.lifetime.end.p0(i64 8, ptr %16) #5
  br label %211

211:                                              ; preds = %162
  %212 = load i32, ptr %12, align 4
  %213 = add i32 %212, 1
  store i32 %213, ptr %12, align 4
  br label %156, !llvm.loop !8

214:                                              ; preds = %156
  %215 = load ptr, ptr %7, align 8
  %216 = getelementptr inbounds nuw %struct.MergeAppendState, ptr %215, i32 0, i32 7
  store i8 0, ptr %216, align 8
  %217 = load ptr, ptr %7, align 8
  call void @llvm.lifetime.end.p0(i64 4, ptr %13) #5
  call void @llvm.lifetime.end.p0(i64 4, ptr %12) #5
  call void @llvm.lifetime.end.p0(i64 4, ptr %11) #5
  call void @llvm.lifetime.end.p0(i64 8, ptr %10) #5
  call void @llvm.lifetime.end.p0(i64 8, ptr %9) #5
  call void @llvm.lifetime.end.p0(i64 8, ptr %8) #5
  call void @llvm.lifetime.end.p0(i64 8, ptr %7) #5
  ret ptr %217
}