; Function Attrs: nounwind uwtable
define dso_local noundef ptr @ExecInitMergeAppend(ptr noundef %0, ptr noundef %1, i32 noundef %2) local_unnamed_addr #0 {
  %4 = alloca ptr, align 8
  %5 = tail call noundef ptr @palloc0(i64 noundef 264) #3
  store i32 397, ptr %5, align 4
  call void @llvm.lifetime.start.p0(i64 8, ptr nonnull %4) #3
  %6 = getelementptr inbounds nuw i8, ptr %5, i64 8
  store ptr %0, ptr %6, align 8
  %7 = getelementptr inbounds nuw i8, ptr %5, i64 16
  store ptr %1, ptr %7, align 8
  %8 = getelementptr inbounds nuw i8, ptr %5, i64 24
  store ptr @ExecMergeAppend, ptr %8, align 8
  %9 = getelementptr inbounds nuw i8, ptr %0, i64 160
  %10 = load i32, ptr %9, align 8
  %11 = icmp sgt i32 %10, -1
  %12 = getelementptr inbounds nuw i8, ptr %0, i64 112
  %13 = load ptr, ptr %12, align 8
  %.not.i = icmp eq ptr %13, null
  br i1 %11, label %14, label %32

14:                                               ; preds = %3
  br i1 %.not.i, label %list_length.exit, label %15

15:                                               ; preds = %14
  %16 = getelementptr inbounds nuw i8, ptr %13, i64 4
  %17 = load i32, ptr %16, align 4
  br label %list_length.exit

list_length.exit:                                 ; preds = %14, %15
  %18 = phi i32 [ %17, %15 ], [ 0, %14 ]
  %19 = getelementptr inbounds nuw i8, ptr %0, i64 104
  %20 = load ptr, ptr %19, align 8
  %21 = call ptr @ExecInitPartitionExecPruning(ptr noundef nonnull %5, i32 noundef %18, i32 noundef %10, ptr noundef %20, ptr noundef nonnull %4) #3
  %22 = getelementptr inbounds nuw i8, ptr %5, i64 248
  store ptr %21, ptr %22, align 8
  %23 = load ptr, ptr %4, align 8
  %24 = call i32 @bms_num_members(ptr noundef %23) #3
  %25 = getelementptr inbounds nuw i8, ptr %21, i64 33
  %26 = load i8, ptr %25, align 1, !range !4, !noundef !5
  %27 = trunc nuw i8 %26 to i1
  %28 = icmp slt i32 %24, 1
  %or.cond.not = select i1 %27, i1 true, i1 %28
  br i1 %or.cond.not, label %41, label %29

29:                                               ; preds = %list_length.exit
  %30 = add nsw i32 %24, -1
  %31 = call ptr @bms_add_range(ptr noundef null, i32 noundef 0, i32 noundef %30) #3
  br label %.sink.split

32:                                               ; preds = %3
  br i1 %.not.i, label %list_length.exit79, label %33

33:                                               ; preds = %32
  %34 = getelementptr inbounds nuw i8, ptr %13, i64 4
  %35 = load i32, ptr %34, align 4
  br label %list_length.exit79

list_length.exit79:                               ; preds = %32, %33
  %36 = phi i32 [ %35, %33 ], [ 0, %32 ]
  %37 = add i32 %36, -1
  %38 = tail call ptr @bms_add_range(ptr noundef null, i32 noundef 0, i32 noundef %37) #3
  store ptr %38, ptr %4, align 8
  %39 = getelementptr inbounds nuw i8, ptr %5, i64 256
  store ptr %38, ptr %39, align 8
  br label %.sink.split

.sink.split:                                      ; preds = %list_length.exit79, %29
  %.sink87 = phi i64 [ 256, %29 ], [ 248, %list_length.exit79 ]
  %.sink = phi ptr [ %31, %29 ], [ null, %list_length.exit79 ]
  %.0.ph = phi i32 [ %24, %29 ], [ %36, %list_length.exit79 ]
  %40 = getelementptr inbounds nuw i8, ptr %5, i64 %.sink87
  store ptr %.sink, ptr %40, align 8
  br label %41

41:                                               ; preds = %.sink.split, %list_length.exit
  %.0 = phi i32 [ %24, %list_length.exit ], [ %.0.ph, %.sink.split ]
  %42 = sext i32 %.0 to i64
  %43 = shl nsw i64 %42, 3
  %44 = call ptr @palloc(i64 noundef %43) #3
  %45 = getelementptr inbounds nuw i8, ptr %5, i64 200
  store ptr %44, ptr %45, align 8
  %46 = getelementptr inbounds nuw i8, ptr %5, i64 208
  store i32 %.0, ptr %46, align 8
  %47 = call ptr @palloc0(i64 noundef %43) #3
  %48 = getelementptr inbounds nuw i8, ptr %5, i64 224
  store ptr %47, ptr %48, align 8
  %49 = call ptr @binaryheap_allocate(i32 noundef %.0, ptr noundef nonnull @heap_compare_slots, ptr noundef nonnull %5) #3
  %50 = getelementptr inbounds nuw i8, ptr %5, i64 232
  store ptr %49, ptr %50, align 8
  %51 = load ptr, ptr %4, align 8
  %52 = call i32 @bms_next_member(ptr noundef %51, i32 noundef -1) #3
  %53 = icmp sgt i32 %52, -1
  br i1 %53, label %.lr.ph, label %._crit_edge

.lr.ph:                                           ; preds = %41
  %54 = getelementptr inbounds nuw i8, ptr %0, i64 112
  br label %55

55:                                               ; preds = %.lr.ph, %55
  %56 = phi i32 [ %52, %.lr.ph ], [ %67, %55 ]
  %.07380 = phi i32 [ 0, %.lr.ph ], [ %63, %55 ]
  %57 = load ptr, ptr %54, align 8
  %58 = getelementptr i8, ptr %57, i64 16
  %.val = load ptr, ptr %58, align 8
  %59 = zext nneg i32 %56 to i64
  %60 = getelementptr inbounds nuw %union.ListCell, ptr %.val, i64 %59
  %61 = load ptr, ptr %60, align 8
  %62 = call ptr @ExecInitNode(ptr noundef %61, ptr noundef %1, i32 noundef %2) #3
  %63 = add i32 %.07380, 1
  %64 = sext i32 %.07380 to i64
  %65 = getelementptr inbounds ptr, ptr %44, i64 %64
  store ptr %62, ptr %65, align 8
  %66 = load ptr, ptr %4, align 8
  %67 = call i32 @bms_next_member(ptr noundef %66, i32 noundef %56) #3
  %68 = icmp sgt i32 %67, -1
  br i1 %68, label %55, label %._crit_edge, !llvm.loop !6

._crit_edge:                                      ; preds = %55, %41
  %.073.lcssa = phi i32 [ 0, %41 ], [ %63, %55 ]
  %69 = call ptr @ExecGetCommonSlotOps(ptr noundef %44, i32 noundef %.073.lcssa) #3
  %.not = icmp eq ptr %69, null
  br i1 %.not, label %71, label %70

70:                                               ; preds = %._crit_edge
  call void @ExecInitResultTupleSlotTL(ptr noundef nonnull %5, ptr noundef nonnull %69) #3
  br label %74

71:                                               ; preds = %._crit_edge
  call void @ExecInitResultTupleSlotTL(ptr noundef nonnull %5, ptr noundef nonnull @TTSOpsVirtual) #3
  %72 = getelementptr inbounds nuw i8, ptr %5, i64 199
  store i8 1, ptr %72, align 1
  %73 = getelementptr inbounds nuw i8, ptr %5, i64 195
  store i8 0, ptr %73, align 1
  br label %74

74:                                               ; preds = %71, %70
  %75 = getelementptr inbounds nuw i8, ptr %5, i64 136
  store ptr null, ptr %75, align 8
  %76 = getelementptr inbounds nuw i8, ptr %0, i64 120
  %77 = load i32, ptr %76, align 8
  %78 = getelementptr inbounds nuw i8, ptr %5, i64 212
  store i32 %77, ptr %78, align 4
  %79 = sext i32 %77 to i64
  %80 = shl nsw i64 %79, 6
  %81 = call ptr @palloc0(i64 noundef %80) #3
  %82 = getelementptr inbounds nuw i8, ptr %5, i64 216
  store ptr %81, ptr %82, align 8
  %83 = load i32, ptr %76, align 8
  %84 = icmp sgt i32 %83, 0
  br i1 %84, label %.lr.ph83, label %._crit_edge84

.lr.ph83:                                         ; preds = %74
  %85 = getelementptr inbounds nuw i8, ptr %0, i64 144
  %86 = getelementptr inbounds nuw i8, ptr %0, i64 152
  %87 = getelementptr inbounds nuw i8, ptr %0, i64 128
  %88 = getelementptr inbounds nuw i8, ptr %0, i64 136
  br label %89

89:                                               ; preds = %.lr.ph83, %89
  %indvars.iv = phi i64 [ 0, %.lr.ph83 ], [ %indvars.iv.next, %89 ]
  %90 = load ptr, ptr %82, align 8
  %91 = getelementptr inbounds nuw %struct.SortSupportData, ptr %90, i64 %indvars.iv
  %92 = load ptr, ptr @CurrentMemoryContext, align 8
  store ptr %92, ptr %91, align 8
  %93 = load ptr, ptr %85, align 8
  %94 = getelementptr inbounds nuw i32, ptr %93, i64 %indvars.iv
  %95 = load i32, ptr %94, align 4
  %96 = getelementptr inbounds nuw i8, ptr %91, i64 8
  store i32 %95, ptr %96, align 8
  %97 = load ptr, ptr %86, align 8
  %98 = getelementptr inbounds nuw i8, ptr %97, i64 %indvars.iv
  %99 = load i8, ptr %98, align 1, !range !4, !noundef !5
  %100 = getelementptr inbounds nuw i8, ptr %91, i64 13
  store i8 %99, ptr %100, align 1
  %101 = load ptr, ptr %87, align 8
  %102 = getelementptr inbounds nuw i16, ptr %101, i64 %indvars.iv
  %103 = load i16, ptr %102, align 2
  %104 = getelementptr inbounds nuw i8, ptr %91, i64 14
  store i16 %103, ptr %104, align 2
  %105 = getelementptr inbounds nuw i8, ptr %91, i64 32
  store i8 0, ptr %105, align 8
  %106 = load ptr, ptr %88, align 8
  %107 = getelementptr inbounds nuw i32, ptr %106, i64 %indvars.iv
  %108 = load i32, ptr %107, align 4
  call void @PrepareSortSupportFromOrderingOp(i32 noundef %108, ptr noundef nonnull %91) #3
  %indvars.iv.next = add nuw nsw i64 %indvars.iv, 1
  %109 = load i32, ptr %76, align 8
  %110 = sext i32 %109 to i64
  %111 = icmp slt i64 %indvars.iv.next, %110
  br i1 %111, label %89, label %._crit_edge84, !llvm.loop !8

._crit_edge84:                                    ; preds = %89, %74
  %112 = getelementptr inbounds nuw i8, ptr %5, i64 240
  store i8 0, ptr %112, align 8
  call void @llvm.lifetime.end.p0(i64 8, ptr nonnull %4) #3
  ret ptr %5
}